target datalayout = "e-m:e-p270:32:32-p271:32:32-p272:64:64-i64:64-i128:128-f80:128-n8:16:32:64-S128"
target triple = "x86_64-pc-linux-gnu"

%"struct.std::__detail::_Hash_node_base" = type { ptr }
%"struct.std::__detail::_Prime_rehash_policy" = type { float, i64 }
%class.V3DfgPeephole = type { %class.DfgVisitor, ptr, ptr, ptr, ptr, %"class.V3DfgCacheInternal::V3DfgCache" }
%class.DfgVisitor = type { ptr }
%"class.V3DfgCacheInternal::V3DfgCache" = type { ptr, %"class.std::unordered_map.52", %"class.std::unordered_map.68", %"class.std::unordered_map.68", %"class.std::unordered_map.84", %"class.std::unordered_map.84", %"class.std::unordered_map.84", %"class.std::unordered_map.84", %"class.std::unordered_map.84", %"class.std::unordered_map.84", %"class.std::unordered_map.84", %"class.std::unordered_map.84", %"class.std::unordered_map.84", %"class.std::unordered_map.84", %"class.std::unordered_map.84", %"class.std::unordered_map.84", %"class.std::unordered_map.84", %"class.std::unordered_map.68", %"class.std::unordered_map.68", %"class.std::unordered_map.68", %"class.std::unordered_map.100" }
%"class.std::unordered_map.52" = type { %"class.std::_Hashtable.53" }
%"class.std::_Hashtable.53" = type { [8 x i8], ptr, i64, %"struct.std::__detail::_Hash_node_base", i64, %"struct.std::__detail::_Prime_rehash_policy", ptr }
%"class.std::unordered_map.84" = type { %"class.std::_Hashtable.85" }
%"class.std::_Hashtable.85" = type { [8 x i8], ptr, i64, %"struct.std::__detail::_Hash_node_base", i64, %"struct.std::__detail::_Prime_rehash_policy", ptr }
%"class.std::unordered_map.68" = type { %"class.std::_Hashtable.69" }
%"class.std::_Hashtable.69" = type { [8 x i8], ptr, i64, %"struct.std::__detail::_Hash_node_base", i64, %"struct.std::__detail::_Prime_rehash_policy", ptr }
%"class.std::unordered_map.100" = type { %"class.std::_Hashtable.101" }
%"class.std::_Hashtable.101" = type { [8 x i8], ptr, i64, %"struct.std::__detail::_Hash_node_base", i64, %"struct.std::__detail::_Prime_rehash_policy", ptr }

; Function Attrs: inlinehint mustprogress nounwind uwtable
define linkonce_odr dso_local void @_ZN13V3DfgPeepholeD2Ev(ptr noundef nonnull align 8 dereferenceable(1328) %0) unnamed_addr #5 comdat align 2 {
  %2 = alloca ptr, align 8
  store ptr %0, ptr %2, align 8, !tbaa !113
  %3 = load ptr, ptr %2, align 8
  %4 = getelementptr inbounds nuw %class.V3DfgPeephole, ptr %3, i32 0, i32 5
  call void @_ZN18V3DfgCacheInternal10V3DfgCacheD2Ev(ptr noundef nonnull align 8 dereferenceable(1288) %4) #3
  ret void
}

; Function Attrs: mustprogress uwtable
define linkonce_odr dso_local void @_ZN13V3DfgPeephole5applyER8DfgGraphR20V3DfgPeepholeContext(ptr noundef nonnull align 8 dereferenceable(104) %0, ptr noundef nonnull align 8 dereferenceable(632) %1) #4 comdat align 2 {
  %3 = alloca ptr, align 8
  %4 = alloca ptr, align 8
  %5 = alloca %class.V3DfgPeephole, align 8
  store ptr %0, ptr %3, align 8, !tbaa !26
  store ptr %1, ptr %4, align 8, !tbaa !4
  %6 = load ptr, ptr %3, align 8, !tbaa !26
  %7 = load ptr, ptr %4, align 8, !tbaa !4
  call void @_ZN13V3DfgPeepholeC2ER8DfgGraphR20V3DfgPeepholeContext(ptr noundef nonnull align 8 dereferenceable(1328) %5, ptr noundef nonnull align 8 dereferenceable(104) %6, ptr noundef nonnull align 8 dereferenceable(632) %7)
  call void @_ZN13V3DfgPeepholeD2Ev(ptr noundef nonnull align 8 dereferenceable(1328) %5) #3
  ret void
}

; Function Attrs: mustprogress uwtable
define dso_local void @_ZN11V3DfgPasses8peepholeER8DfgGraphR20V3DfgPeepholeContext(ptr noundef nonnull align 8 dereferenceable(104) %0, ptr noundef nonnull align 8 dereferenceable(632) %1) #4 {
  %3 = alloca ptr, align 8
  %4 = alloca ptr, align 8
  store ptr %0, ptr %3, align 8, !tbaa !26
  store ptr %1, ptr %4, align 8, !tbaa !4
  %5 = load ptr, ptr %3, align 8, !tbaa !26
  %6 = load ptr, ptr %4, align 8, !tbaa !4
  call void @_ZN13V3DfgPeephole5applyER8DfgGraphR20V3DfgPeepholeContext(ptr noundef nonnull align 8 dereferenceable(104) %5, ptr noundef nonnull align 8 dereferenceable(632) %6)
  ret void
}