; Function Attrs: mustprogress uwtable
define dso_local void @_ZN11V3DfgPasses8peepholeER8DfgGraphR20V3DfgPeepholeContext(ptr noundef nonnull align 8 dereferenceable(104) %0, ptr noundef nonnull align 8 dereferenceable(632) %1) #3 {
  %3 = alloca %class.V3DfgPeephole, align 8
  call void @llvm.lifetime.start.p0(i64 1328, ptr nonnull %3)
  call void @_ZN13V3DfgPeepholeC2ER8DfgGraphR20V3DfgPeepholeContext(ptr noundef nonnull align 8 dereferenceable(1328) %3, ptr noundef nonnull align 8 dereferenceable(104) %0, ptr noundef nonnull align 8 dereferenceable(632) %1)
  %4 = getelementptr inbounds nuw i8, ptr %3, i64 40
  call void @_ZN18V3DfgCacheInternal10V3DfgCacheD2Ev(ptr noundef nonnull align 8 dereferenceable(1288) %4) #23
  call void @llvm.lifetime.end.p0(i64 1328, ptr nonnull %3)
  ret void
}